; Function Attrs: mustprogress uwtable
define void @_ZN6google8protobuf8internal11LogFinisheraSERNS1_10LogMessageE(ptr nocapture noundef nonnull readnone align 1 dereferenceable(1) %0, ptr noundef nonnull align 8 dereferenceable(56) %1) local_unnamed_addr #3 align 2 personality ptr @__gxx_personality_v0 {
  %3 = load i32, ptr %1, align 8
  %.not.i = icmp eq i32 %3, 3
  br i1 %.not.i, label %.critedge.i, label %4

4:                                                ; preds = %2
  %5 = load atomic i32, ptr @_ZN6google8protobuf8internalL19log_silencer_count_E seq_cst, align 4
  %6 = icmp sgt i32 %5, 0
  br i1 %6, label %14, label %..critedge_crit_edge.i

..critedge_crit_edge.i:                           ; preds = %4
  %.pre.i = load i32, ptr %1, align 8
  br label %.critedge.i

.critedge.i:                                      ; preds = %..critedge_crit_edge.i, %2
  %7 = phi i32 [ %.pre.i, %..critedge_crit_edge.i ], [ 3, %2 ]
  %8 = load ptr, ptr @_ZN6google8protobuf8internalL12log_handler_B5cxx11E, align 8
  %9 = getelementptr inbounds i8, ptr %1, i64 8
  %10 = load ptr, ptr %9, align 8
  %11 = getelementptr inbounds i8, ptr %1, i64 16
  %12 = load i32, ptr %11, align 8
  %13 = getelementptr inbounds i8, ptr %1, i64 24
  tail call void %8(i32 noundef %7, ptr noundef %10, i32 noundef %12, ptr noundef nonnull align 8 dereferenceable(32) %13)
  br label %14

14:                                               ; preds = %.critedge.i, %4
  %15 = load i32, ptr %1, align 8
  %16 = icmp eq i32 %15, 3
  br i1 %16, label %17, label %_ZN6google8protobuf8internal10LogMessage6FinishEv.exit

17:                                               ; preds = %14
  %18 = tail call ptr @__cxa_allocate_exception(i64 56) #16
  %19 = getelementptr inbounds i8, ptr %1, i64 8
  %20 = load ptr, ptr %19, align 8
  %21 = getelementptr inbounds i8, ptr %1, i64 16
  %22 = load i32, ptr %21, align 8
  %23 = getelementptr inbounds i8, ptr %1, i64 24
  invoke void @_ZN6google8protobuf14FatalExceptionC2EPKciRKNSt7__cxx1112basic_stringIcSt11char_traitsIcESaIcEEE(ptr noundef nonnull align 8 dereferenceable(56) %18, ptr noundef %20, i32 noundef %22, ptr noundef nonnull align 8 dereferenceable(32) %23)
          to label %24 unwind label %25

24:                                               ; preds = %17
  tail call void @__cxa_throw(ptr nonnull %18, ptr nonnull @_ZTIN6google8protobuf14FatalExceptionE, ptr nonnull @_ZN6google8protobuf14FatalExceptionD1Ev) #17
  unreachable

25:                                               ; preds = %17
  %26 = landingpad { ptr, i32 }
          cleanup
  tail call void @__cxa_free_exception(ptr %18) #16
  resume { ptr, i32 } %26

_ZN6google8protobuf8internal10LogMessage6FinishEv.exit: ; preds = %14
  ret void
}